target datalayout = "e-m:e-p270:32:32-p271:32:32-p272:64:64-i64:64-i128:128-f80:128-n8:16:32:64-S128"
target triple = "x86_64-pc-linux-gnu"

; Function Attrs: nounwind uwtable
define internal i32 @asm_x86_inslen(ptr noundef %0) #0 {
  %2 = alloca i32, align 4
  %3 = alloca ptr, align 8
  %4 = alloca i32, align 4
  %5 = alloca i32, align 4
  %6 = alloca i32, align 4
  %7 = alloca i32, align 4
  store ptr %0, ptr %3, align 8, !tbaa !13
  call void @llvm.lifetime.start.p0(i64 4, ptr %4) #11
  store i32 0, ptr %4, align 4, !tbaa !11
  call void @llvm.lifetime.start.p0(i64 4, ptr %5) #11
  store i32 0, ptr %5, align 4, !tbaa !11
  call void @llvm.lifetime.start.p0(i64 4, ptr %6) #11
  %8 = load ptr, ptr %3, align 8, !tbaa !13
  %9 = load i8, ptr %8, align 1, !tbaa !25
  %10 = zext i8 %9 to i64
  %11 = getelementptr inbounds nuw [256 x i8], ptr @map_op1, i64 0, i64 %10
  %12 = load i8, ptr %11, align 1, !tbaa !25
  %13 = zext i8 %12 to i32
  store i32 %13, ptr %6, align 4, !tbaa !11
  br label %14

14:                                               ; preds = %162, %1
  %15 = load i32, ptr %6, align 4, !tbaa !11
  %16 = lshr i32 %15, 4
  switch i32 %16, label %162 [
    i32 0, label %17
    i32 1, label %24
    i32 2, label %37
    i32 3, label %45
    i32 4, label %48
    i32 5, label %53
    i32 6, label %58
    i32 7, label %76
    i32 8, label %107
    i32 9, label %112
  ]

17:                                               ; preds = %14
  %18 = load i32, ptr %4, align 4, !tbaa !11
  %19 = load i32, ptr %6, align 4, !tbaa !11
  %20 = add i32 %18, %19
  %21 = load i32, ptr %5, align 4, !tbaa !11
  %22 = and i32 %21, 4
  %23 = add i32 %20, %22
  store i32 %23, ptr %2, align 4
  store i32 1, ptr %7, align 4
  br label %163

24:                                               ; preds = %14
  %25 = load i32, ptr %6, align 4, !tbaa !11
  %26 = load i32, ptr %5, align 4, !tbaa !11
  %27 = or i32 %26, %25
  store i32 %27, ptr %5, align 4, !tbaa !11
  %28 = load ptr, ptr %3, align 8, !tbaa !13
  %29 = getelementptr inbounds nuw i8, ptr %28, i32 1
  store ptr %29, ptr %3, align 8, !tbaa !13
  %30 = load i8, ptr %29, align 1, !tbaa !25
  %31 = zext i8 %30 to i64
  %32 = getelementptr inbounds nuw [256 x i8], ptr @map_op1, i64 0, i64 %31
  %33 = load i8, ptr %32, align 1, !tbaa !25
  %34 = zext i8 %33 to i32
  store i32 %34, ptr %6, align 4, !tbaa !11
  %35 = load i32, ptr %4, align 4, !tbaa !11
  %36 = add i32 %35, 1
  store i32 %36, ptr %4, align 4, !tbaa !11
  br label %162

37:                                               ; preds = %14
  %38 = load ptr, ptr %3, align 8, !tbaa !13
  %39 = getelementptr inbounds nuw i8, ptr %38, i32 1
  store ptr %39, ptr %3, align 8, !tbaa !13
  %40 = load i8, ptr %39, align 1, !tbaa !25
  %41 = zext i8 %40 to i64
  %42 = getelementptr inbounds nuw [256 x i8], ptr @map_op2, i64 0, i64 %41
  %43 = load i8, ptr %42, align 1, !tbaa !25
  %44 = zext i8 %43 to i32
  store i32 %44, ptr %6, align 4, !tbaa !11
  br label %162

45:                                               ; preds = %14
  %46 = load ptr, ptr %3, align 8, !tbaa !13
  %47 = getelementptr inbounds nuw i8, ptr %46, i32 1
  store ptr %47, ptr %3, align 8, !tbaa !13
  br label %113

48:                                               ; preds = %14
  %49 = load i32, ptr %5, align 4, !tbaa !11
  %50 = and i32 %49, 2
  %51 = load i32, ptr %4, align 4, !tbaa !11
  %52 = sub i32 %51, %50
  store i32 %52, ptr %4, align 4, !tbaa !11
  br label %53

53:                                               ; preds = %14, %48
  %54 = load i32, ptr %4, align 4, !tbaa !11
  %55 = load i32, ptr %6, align 4, !tbaa !11
  %56 = and i32 %55, 15
  %57 = add i32 %54, %56
  store i32 %57, ptr %2, align 4
  store i32 1, ptr %7, align 4
  br label %163

58:                                               ; preds = %14
  %59 = load ptr, ptr %3, align 8, !tbaa !13
  %60 = getelementptr inbounds i8, ptr %59, i64 1
  %61 = load i8, ptr %60, align 1, !tbaa !25
  %62 = zext i8 %61 to i32
  %63 = and i32 %62, 56
  %64 = icmp ne i32 %63, 0
  br i1 %64, label %65, label %66

65:                                               ; preds = %58
  store i32 2, ptr %6, align 4, !tbaa !11
  br label %75

66:                                               ; preds = %58
  %67 = load i32, ptr %5, align 4, !tbaa !11
  %68 = and i32 %67, 2
  %69 = icmp ne i32 %68, 0
  br i1 %69, label %70, label %74

70:                                               ; preds = %66
  %71 = load i32, ptr %6, align 4, !tbaa !11
  %72 = icmp eq i32 %71, 102
  br i1 %72, label %73, label %74

73:                                               ; preds = %70
  store i32 4, ptr %6, align 4, !tbaa !11
  br label %74

74:                                               ; preds = %73, %70, %66
  br label %75

75:                                               ; preds = %74, %65
  br label %113

76:                                               ; preds = %14
  %77 = load i32, ptr %6, align 4, !tbaa !11
  %78 = icmp eq i32 %77, 112
  br i1 %78, label %79, label %95

79:                                               ; preds = %76
  %80 = load ptr, ptr %3, align 8, !tbaa !13
  %81 = getelementptr inbounds nuw i8, ptr %80, i32 1
  store ptr %81, ptr %3, align 8, !tbaa !13
  %82 = load i8, ptr %81, align 1, !tbaa !25
  %83 = zext i8 %82 to i32
  %84 = and i32 %83, 31
  store i32 %84, ptr %6, align 4, !tbaa !11
  %85 = load i32, ptr %4, align 4, !tbaa !11
  %86 = add i32 %85, 1
  store i32 %86, ptr %4, align 4, !tbaa !11
  %87 = load i32, ptr %6, align 4, !tbaa !11
  %88 = icmp uge i32 %87, 2
  br i1 %88, label %89, label %94

89:                                               ; preds = %79
  %90 = load ptr, ptr %3, align 8, !tbaa !13
  %91 = getelementptr inbounds i8, ptr %90, i64 2
  store ptr %91, ptr %3, align 8, !tbaa !13
  %92 = load i32, ptr %4, align 4, !tbaa !11
  %93 = add i32 %92, 2
  store i32 %93, ptr %4, align 4, !tbaa !11
  br label %113

94:                                               ; preds = %79
  br label %95

95:                                               ; preds = %94, %76
  %96 = load ptr, ptr %3, align 8, !tbaa !13
  %97 = getelementptr inbounds nuw i8, ptr %96, i32 1
  store ptr %97, ptr %3, align 8, !tbaa !13
  %98 = load i32, ptr %4, align 4, !tbaa !11
  %99 = add i32 %98, 1
  store i32 %99, ptr %4, align 4, !tbaa !11
  %100 = load ptr, ptr %3, align 8, !tbaa !13
  %101 = getelementptr inbounds nuw i8, ptr %100, i32 1
  store ptr %101, ptr %3, align 8, !tbaa !13
  %102 = load i8, ptr %101, align 1, !tbaa !25
  %103 = zext i8 %102 to i64
  %104 = getelementptr inbounds nuw [256 x i8], ptr @map_op2, i64 0, i64 %103
  %105 = load i8, ptr %104, align 1, !tbaa !25
  %106 = zext i8 %105 to i32
  store i32 %106, ptr %6, align 4, !tbaa !11
  br label %162

107:                                              ; preds = %14
  %108 = load i32, ptr %5, align 4, !tbaa !11
  %109 = and i32 %108, 2
  %110 = load i32, ptr %4, align 4, !tbaa !11
  %111 = sub i32 %110, %109
  store i32 %111, ptr %4, align 4, !tbaa !11
  br label %112

112:                                              ; preds = %14, %107
  br label %113

113:                                              ; preds = %112, %89, %75, %45
  %114 = load i32, ptr %6, align 4, !tbaa !11
  %115 = and i32 %114, 15
  %116 = load i32, ptr %4, align 4, !tbaa !11
  %117 = add i32 %116, %115
  store i32 %117, ptr %4, align 4, !tbaa !11
  %118 = load ptr, ptr %3, align 8, !tbaa !13
  %119 = getelementptr inbounds nuw i8, ptr %118, i32 1
  store ptr %119, ptr %3, align 8, !tbaa !13
  %120 = load i8, ptr %119, align 1, !tbaa !25
  %121 = zext i8 %120 to i32
  store i32 %121, ptr %6, align 4, !tbaa !11
  %122 = load i32, ptr %6, align 4, !tbaa !11
  %123 = lshr i32 %122, 6
  switch i32 %123, label %140 [
    i32 0, label %124
    i32 1, label %132
    i32 2, label %135
    i32 3, label %138
  ]

124:                                              ; preds = %113
  %125 = load i32, ptr %6, align 4, !tbaa !11
  %126 = and i32 %125, 7
  %127 = icmp eq i32 %126, 5
  br i1 %127, label %128, label %131

128:                                              ; preds = %124
  %129 = load i32, ptr %4, align 4, !tbaa !11
  %130 = add i32 %129, 4
  store i32 %130, ptr %2, align 4
  store i32 1, ptr %7, align 4
  br label %163

131:                                              ; preds = %124
  br label %140

132:                                              ; preds = %113
  %133 = load i32, ptr %4, align 4, !tbaa !11
  %134 = add i32 %133, 1
  store i32 %134, ptr %4, align 4, !tbaa !11
  br label %140

135:                                              ; preds = %113
  %136 = load i32, ptr %4, align 4, !tbaa !11
  %137 = add i32 %136, 4
  store i32 %137, ptr %4, align 4, !tbaa !11
  br label %140

138:                                              ; preds = %113
  %139 = load i32, ptr %4, align 4, !tbaa !11
  store i32 %139, ptr %2, align 4
  store i32 1, ptr %7, align 4
  br label %163

140:                                              ; preds = %113, %135, %132, %131
  %141 = load i32, ptr %6, align 4, !tbaa !11
  %142 = and i32 %141, 7
  %143 = icmp eq i32 %142, 4
  br i1 %143, label %144, label %160

144:                                              ; preds = %140
  %145 = load i32, ptr %4, align 4, !tbaa !11
  %146 = add i32 %145, 1
  store i32 %146, ptr %4, align 4, !tbaa !11
  %147 = load i32, ptr %6, align 4, !tbaa !11
  %148 = icmp ult i32 %147, 64
  br i1 %148, label %149, label %159

149:                                              ; preds = %144
  %150 = load ptr, ptr %3, align 8, !tbaa !13
  %151 = getelementptr inbounds i8, ptr %150, i64 1
  %152 = load i8, ptr %151, align 1, !tbaa !25
  %153 = zext i8 %152 to i32
  %154 = and i32 %153, 7
  %155 = icmp eq i32 %154, 5
  br i1 %155, label %156, label %159

156:                                              ; preds = %149
  %157 = load i32, ptr %4, align 4, !tbaa !11
  %158 = add i32 %157, 4
  store i32 %158, ptr %4, align 4, !tbaa !11
  br label %159

159:                                              ; preds = %156, %149, %144
  br label %160

160:                                              ; preds = %159, %140
  %161 = load i32, ptr %4, align 4, !tbaa !11
  store i32 %161, ptr %2, align 4
  store i32 1, ptr %7, align 4
  br label %163

162:                                              ; preds = %14, %95, %37, %24
  br label %14

163:                                              ; preds = %160, %138, %128, %53, %17
  call void @llvm.lifetime.end.p0(i64 4, ptr %6) #11
  call void @llvm.lifetime.end.p0(i64 4, ptr %5) #11
  call void @llvm.lifetime.end.p0(i64 4, ptr %4) #11
  %164 = load i32, ptr %2, align 4
  ret i32 %164
}