; Function Attrs: nofree norecurse nosync nounwind memory(argmem: read) uwtable
define internal fastcc i32 @asm_x86_inslen(ptr noundef readonly captures(none) %0) unnamed_addr #3 {
  br label %.outer.outer.outer

.outer.outer.outer:                               ; preds = %8, %1
  %.050.ph.ph.ph = phi ptr [ %10, %8 ], [ %0, %1 ]
  %.047.ph.ph.ph = phi i32 [ %11, %8 ], [ 0, %1 ]
  %.045.ph.ph.ph = phi i32 [ %9, %8 ], [ 0, %1 ]
  %.pn.in = load i8, ptr %.050.ph.ph.ph, align 1, !tbaa !20
  %.pn = zext i8 %.pn.in to i64
  %.0.ph.ph.ph.in.in = getelementptr inbounds nuw [256 x i8], ptr @map_op1, i64 0, i64 %.pn
  br label %.outer.outer

.outer.outer:                                     ; preds = %.outer.outer.outer, %44
  %.050.ph.ph = phi ptr [ %46, %44 ], [ %.050.ph.ph.ph, %.outer.outer.outer ]
  %.047.ph.ph = phi i32 [ %45, %44 ], [ %.047.ph.ph.ph, %.outer.outer.outer ]
  %.0.ph.ph.in.in = phi ptr [ %49, %44 ], [ %.0.ph.ph.ph.in.in, %.outer.outer.outer ]
  br label %.outer

.outer:                                           ; preds = %.outer.outer, %12
  %.050.ph = phi ptr [ %13, %12 ], [ %.050.ph.ph, %.outer.outer ]
  %.0.ph.in.in = phi ptr [ %16, %12 ], [ %.0.ph.ph.in.in, %.outer.outer ]
  %.0.ph.in = load i8, ptr %.0.ph.in.in, align 1, !tbaa !20
  %.0.ph = zext i8 %.0.ph.in to i32
  %2 = lshr i32 %.0.ph, 4
  br label %3

3:                                                ; preds = %.outer, %3
  switch i32 %2, label %3 [
    i32 0, label %4
    i32 1, label %8
    i32 2, label %12
    i32 3, label %17
    i32 4, label %19
    i32 5, label %.loopexit
    i32 6, label %24
    i32 7, label %32
    i32 8, label %50
    i32 9, label %.loopexit56
  ]

4:                                                ; preds = %3
  %5 = add i32 %.047.ph.ph, %.0.ph
  %6 = and i32 %.045.ph.ph.ph, 4
  %7 = add i32 %5, %6
  br label %80

8:                                                ; preds = %3
  %9 = or i32 %.045.ph.ph.ph, %.0.ph
  %10 = getelementptr inbounds nuw i8, ptr %.050.ph, i64 1
  %11 = add i32 %.047.ph.ph, 1
  br label %.outer.outer.outer

12:                                               ; preds = %3
  %13 = getelementptr inbounds nuw i8, ptr %.050.ph, i64 1
  %14 = load i8, ptr %13, align 1, !tbaa !20
  %15 = zext i8 %14 to i64
  %16 = getelementptr inbounds nuw [256 x i8], ptr @map_op2, i64 0, i64 %15
  br label %.outer

17:                                               ; preds = %3
  %18 = getelementptr inbounds nuw i8, ptr %.050.ph, i64 1
  br label %.loopexit56

19:                                               ; preds = %3
  %20 = and i32 %.045.ph.ph.ph, 2
  %21 = sub i32 %.047.ph.ph, %20
  br label %.loopexit

.loopexit:                                        ; preds = %3, %19
  %.249 = phi i32 [ %21, %19 ], [ %.047.ph.ph, %3 ]
  %22 = and i32 %.0.ph, 15
  %23 = add i32 %.249, %22
  br label %80

24:                                               ; preds = %3
  %25 = getelementptr inbounds nuw i8, ptr %.050.ph, i64 1
  %26 = load i8, ptr %25, align 1, !tbaa !20
  %27 = and i8 %26, 56
  %.not = icmp eq i8 %27, 0
  br i1 %.not, label %28, label %.loopexit56

28:                                               ; preds = %24
  %29 = and i32 %.045.ph.ph.ph, 2
  %30 = icmp ne i32 %29, 0
  %31 = icmp eq i8 %.0.ph.in, 102
  %or.cond = and i1 %30, %31
  %spec.store.select = select i1 %or.cond, i32 4, i32 %.0.ph
  br label %.loopexit56

32:                                               ; preds = %3
  %33 = icmp eq i8 %.0.ph.in, 112
  br i1 %33, label %34, label %44

34:                                               ; preds = %32
  %35 = getelementptr inbounds nuw i8, ptr %.050.ph, i64 1
  %36 = load i8, ptr %35, align 1, !tbaa !20
  %37 = and i8 %36, 31
  %38 = add i32 %.047.ph.ph, 1
  %39 = icmp samesign ugt i8 %37, 1
  br i1 %39, label %40, label %44

40:                                               ; preds = %34
  %41 = zext nneg i8 %37 to i32
  %42 = getelementptr inbounds nuw i8, ptr %.050.ph, i64 3
  %43 = add i32 %.047.ph.ph, 3
  br label %.loopexit56

44:                                               ; preds = %34, %32
  %.353 = phi ptr [ %35, %34 ], [ %.050.ph, %32 ]
  %.4 = phi i32 [ %38, %34 ], [ %.047.ph.ph, %32 ]
  %45 = add i32 %.4, 1
  %46 = getelementptr inbounds nuw i8, ptr %.353, i64 2
  %47 = load i8, ptr %46, align 1, !tbaa !20
  %48 = zext i8 %47 to i64
  %49 = getelementptr inbounds nuw [256 x i8], ptr @map_op2, i64 0, i64 %48
  br label %.outer.outer

50:                                               ; preds = %3
  %51 = and i32 %.045.ph.ph.ph, 2
  %52 = sub i32 %.047.ph.ph, %51
  br label %.loopexit56

.loopexit56:                                      ; preds = %3, %24, %28, %50, %40, %17
  %.252 = phi ptr [ %.050.ph, %50 ], [ %42, %40 ], [ %.050.ph, %28 ], [ %18, %17 ], [ %.050.ph, %24 ], [ %.050.ph, %3 ]
  %.3 = phi i32 [ %52, %50 ], [ %43, %40 ], [ %.047.ph.ph, %28 ], [ %.047.ph.ph, %17 ], [ %.047.ph.ph, %24 ], [ %.047.ph.ph, %3 ]
  %.2 = phi i32 [ %.0.ph, %50 ], [ %41, %40 ], [ %spec.store.select, %28 ], [ %.0.ph, %17 ], [ 2, %24 ], [ %.0.ph, %3 ]
  %53 = and i32 %.2, 15
  %54 = add i32 %53, %.3
  %55 = getelementptr inbounds nuw i8, ptr %.252, i64 1
  %56 = load i8, ptr %55, align 1, !tbaa !20
  %57 = zext i8 %56 to i32
  %58 = lshr i32 %57, 6
  switch i32 %58, label %default.unreachable115 [
    i32 0, label %59
    i32 1, label %64
    i32 2, label %66
    i32 3, label %80
  ]

59:                                               ; preds = %.loopexit56
  %60 = and i32 %57, 7
  %61 = icmp eq i32 %60, 5
  br i1 %61, label %62, label %68

62:                                               ; preds = %59
  %63 = add i32 %54, 4
  br label %80

64:                                               ; preds = %.loopexit56
  %65 = add i32 %54, 1
  br label %68

66:                                               ; preds = %.loopexit56
  %67 = add i32 %54, 4
  br label %68

default.unreachable115:                           ; preds = %.loopexit56
  unreachable

68:                                               ; preds = %59, %66, %64
  %.5 = phi i32 [ %67, %66 ], [ %65, %64 ], [ %54, %59 ]
  %69 = and i32 %57, 7
  %70 = icmp eq i32 %69, 4
  br i1 %70, label %71, label %80

71:                                               ; preds = %68
  %72 = add i32 %.5, 1
  %73 = icmp ult i8 %56, 64
  br i1 %73, label %74, label %80

74:                                               ; preds = %71
  %75 = getelementptr inbounds nuw i8, ptr %.252, i64 2
  %76 = load i8, ptr %75, align 1, !tbaa !20
  %77 = and i8 %76, 7
  %78 = icmp eq i8 %77, 5
  %79 = add i32 %.5, 5
  %spec.select = select i1 %78, i32 %79, i32 %72
  br label %80

80:                                               ; preds = %74, %68, %71, %.loopexit56, %62, %.loopexit, %4
  %.054 = phi i32 [ %63, %62 ], [ %23, %.loopexit ], [ %7, %4 ], [ %54, %.loopexit56 ], [ %72, %71 ], [ %.5, %68 ], [ %spec.select, %74 ]
  ret i32 %.054
}